((lp0
S'Showers continued throughout the week in\nthe Bahia cocoa zone, alle'
p1
aS'The U.S. Agriculture Department\nreported the farmer-owned reserve n'
p2
aS'Argentine grain board figures show\ncrop registrations of grains, oi'
p3
aS'Champion Products Inc said its\nboard of directors approved a two-fo'
p4
aS'Computer Terminal Systems Inc said\nit has completed the sale of 200'
p5
aS'Shr 34 cts vs 1.19 dlrs\n    Net 807,000 vs 2,858,000\n    Assets 51'
p6
aS'Ohio Mattress Co said its first\nquarter, ending February 28, profit'
p7
aS'Oper shr loss two cts vs profit seven cts\n    Oper shr profit 442,0'
p8
aS'Shr one dlr vs 73 cts\n    Net 12.6 mln vs 15.8 mln\n    Revs 337.3'
p9
aS'Dean Foods Co expects earnings for the\nfourth quarter ending May 30'
p10
aS'The Commodity Credit Corporation, CCC,\nhas accepted an export bonus'
p11
aS'Magma Copper Co, a subsidiary of Newmont\nMining Corp, said it is cu'
p12
aS'Brown-Forman Inc said its board\nhas approved a three-for-two stock'
p13
aS'Shr profit 15 cts vs profit four cts\n    Annual div 72 cts vs 72 ct'
p14
aS'Shr 39 cts vs 50 cts\n    Net 1,545,160 vs 2,188,933\n    Revs 25.2'
p15
aS'Sales of previously owned homes\ndropped 14.5 pct in January to a se'
p16
aS'Qtly div eights cts vs 7.5 cts prior\n    Pay March 31\n    Record M'
p17
aS'Shr loss 22 cts vs loss 18 cts\n    Net loss 3,035,000 vs loss 2,516'
p18
aS'Shr 45 cts vs 58 cts\n    Net 1.1 mln vs 829,000\n    Sales 7.9 mln'
p19
aS'Standard Trustco said it expects earnings\nin 1987 to increase at le'
p20
aS'Shr loss 51 cts vs loss three cts\n    Net loss 7,041,000 vs loss 46'
p21
aS'International Coffee Organization, ICO,\nproducing countries will pr'
p22
aS'"McLean Industries Inc\'s United\nStates Lines Inc subsidiary said it "'
p23
aS'ChemLawn Corp <CHEM> could attract a\nhigher bid than the 27 dlrs pe'
p24
aS'Sugar imports subject to the U.S.\nsugar import quota during the wee'
p25
aS'inflation\nplan, initially hailed at home and abroad as the saviour'
p26
aS'"New Zealand\'s official foreign\nreserves fell to 7.15 billion N.Z. D"'
p27
aS'The Panama Canal Commission, a U.S.\ngovernment agency, said in its'
p28
aS'<America First Federally Guaranteed\nMortgage Fund Two> said it is m'
p29
aS'Qtly div 35 cts vs 35 cts prior\n    Payable March 31\n    Record Ma'
p30
aS'AM International Inc, reporting an\noperating loss for the January 3'
p31
aS'The Commodity Credit Corporation (CCC)\nannounced 1.5 mln dlrs in cr'
p32
aS'Assets of money market mutual funds\nincreased 720.4 mln dlrs in the'
p33
aS'Gulf barge freight rates firmed again on\nthe outlook for steady ves'
p34
aS'Gulf Applied Technologies Inc said it\nsold its pipeline and termina'
p35
aS'Shr 80 cts vs 72 cts\n    Net 55,513,000 vs 48,741,000\n    Revs 290'
p36
aS'Shr 27 cts vs 29 cts\n    Net 13,555,000 vs 14,635,000\n    Revs 104'
p37
aS'CoFAB Inc said it acquired <Gulfex Inc>,\na Houston-based fabricator'
p38
aS'Reporting members of the National\nSoybean Processors Association (N'
p39
aS'Qtly div eights cts vs eight cts prior\n    Pay April one\n    Recor'
p40
aS'Shr 30 cts vs 5.92 dlrs\n    Net 1,142,000 vs 16.0 mln\n    Revs 10.'
p41
aS'International Coffee Organization (ICO)\nexporters will modify their'
p42
aS'Commercial and industrial loans on the\nbooks of the 10 major New Yo'
p43
aS'The eight major New York City banks had\n64 mln dlrs in average borr'
p44
aS'Shr primary 95.30 pesos vs 29.71 pesos\n    Shr diluted 61.11 pesos'
p45
aS'Qtly div five cts vs N.A.\n    Payable April two\n    Record March 2'
p46
aS'Qtly div 25 cts vs 25 cts prior\n    Pay April 30\n    Record April'
p47
aS'Qtly div two cts vs 1.7 cts\n    Pay March 26\n    Record March 12'
p48
aS'Annual div Class A 14 cts vs 12 cts prior\n    Annual div Class B 12'
p49
aS'Qtly div three cts vs three cts prior\n    Pay March 13\n    Record'
p50
aS'Shr 1.11 dlrs vs 1.04 dlrs\n    Net 44,092,000 vs 35,145,000\n    Re'
p51
aS'A group of affiliated New York\ninvestment firms said they lowered t'
p52
aS'The Agricultural Stabilization and\nConservation Service (ASCS) has'
p53
aS'Shr profit three cts vs loss three cts\n    Net profit 363,000 vs lo'
p54
aS'"New Zealand\'s trading bank seasonally\nadjusted deposit growth rose "'
p55
aS'The U.S. Agriculture Department\nannounced the prevailing world mark'
p56
aS'The U.S. Agriculture Department said\ncumulative sugar imports from'
p57
aS'There were seven grain ships loading and\nsix ships were waiting to'
p58
aS'Qtly div 25 cts vs 25 cts prior\n    Pay April one\n    Record March'
p59
aS'U.S. bank discount window borrowings\nless extended credits averaged'
p60
aS'American Express Co remained silent on\nmarket rumors it would spino'
p61
aS'U.S. M-1 money supply rose 2.1 billion\ndlrs to a seasonally adjuste'
p62
aS'Liberty All-Star Equity Fund said\nit declared an initial dividend o'
p63
aS'High feed prices will cause the\nChinese to reduce hog herd growth a'
p64
aS'(Ivaco Inc) said price pressure on steel\nproducts, particularly in'
p65
aS'U.S. grain carloadings totaled 26,108\ncars in the week ended Februa'
p66
aS'Industrial Equity (Pacific) Ltd, a\nHong Kong investment firm, said'
p67
aS'Shr loss 6.48 DLS VS PROFIT 23 CTS\n    Net loss 110.6 mln vs profit'
p68
aS'Diamond Shamrock Corp said that\neffective today it had cut its cont'
p69
aS'Liebert Corp said its shareholders\napproved the merger of a wholly-'
p70
aS'Coleco Industries Inc said\nit expects to return to profitability in'
p71
aS'Gulf Applied Technologies Inc said it\nsold its subsidiaries engaged'
p72
aS'A group of affiliated Miami-based\ninvestment firms led by Fundament'
p73
aS'A study on grain certificates due out\nshortly from the Government A'
p74
aS'Shr profit 10 cts vs loss seven cts\n    Net profit 286,870 vs loss'
p75
aS'Shr 16 cts vs 13 cts\n    Pay April 15\n    Record March 31\n Reuter'
p76
aS'Shr loss 1.98 dlrs vs loss 5.24 dlrs\n    Net loss 23.3 mln vs loss'
p77
aS'Period ended December 31.\n    Shr 25 cts vs 20 cts\n    Net 801,000'
p78
aS'Qtly div ten cts vs ten cts\n    Pay April 1\n    Record March 9\n R'
p79
aS'OPEC may be forced to meet before a\nscheduled June session to readd'
p80
aS'Cenergy Corp reported fourth quarter net\nincome of 790,000 dlrs or'
p81
aS'Two-for-one stock split\n    Pay May 12\n    Note: split is subject'
p82
aS'Torchmark Corp said its board\nauthorized the purchase from time to'
p83
aS'Shr loss six cts vs not available\n    Net loss 562,231 vs profit 10'
p84
aS'Qtly div three cts vs three cts prior\n    Pay April three\n    Reco'
p85
aS'A senior official of Drexel Burnham\nLambert Inc and his father told'
p86
aS'Nova, the Canadian company that\nowns 56 pct of Husky Oil Ltd, said'
p87
aS'Oper shr 27 cts vs 29 cts\n    Oper net 13.5 mln vs 14.6 mln\n    Re'
p88
aS'Suffield Financial Corp said the\nFederal Reserve Board approved its'
p89
aS'Qtly div four cts vs four cts\n    Pay April 3\n    Record March 23'
p90
aS'Oper shr 2.16 dlrs vs 2.07 dlrs\n    Oper net 8,037,000 vs 7,710,000'
p91
aS'Qtly div 51 cts vs 51 cts\n    Pay April 9\n    Record March 25'
p92
aS'Qtly div 40 cts vs 40 cts\n    Pay March 31\n    Record March 16\n R'
p93
aS'Oper shr five cts vs 36 cts\n    Oper net 508,000 vs 3,450,000'
p94
aS'(Marshall Steel Ltd), formerly Marshall\nDrummond McCall Inc, said i'
p95
aS'Oper shr 21 cts vs 18 cts\n    Oper net 659,000 vs 523,000\n    Revs'
p96
aS'Liquefied natural gas imports from\nAlgeria are unlikely to happen i'
p97
aS'"Switzerland\'s economy, combining low\nunemployment, financial stabil"'
p98
aS'The U.S. Agriculture Department is not\nactively considering offerin'
p99
aS'Shr 75 cts vs 52 cts\n    Net 1,699,124 vs 1,177,786\n    Revs 45.6'
p100
aS'<Versatile Corp> said\nit agreed in principle to sell its Alberta-ba'
p101
aS'(Groupe Videotron Ltd) said it agreed to\nbuy 50 pct of (Groupe Prom'
p102
aS'Shr 81 cts vs 66 cts\n    Net 5,011,000 vs 2,314,000\n    Revs 57.3'
p103
aS'Texaco Canada said it lowered the\ncontract price it will pay for cr'
p104
aS'The U.S. Agriculture Department\nprobably will not offer a two dlr p'
p105
aS'Marathon Petroleum Co said it reduced\nthe contract price it will pa'
p106
aS'Shr 2.31 dlrs vs 1.96 dlrs\n    Net 119.0 mln vs 101.0 mln\n    Revs'
p107
aS'U.S. farmers who in the past have\ngrown oats for their own use but'
p108
aS'"New Zealand\'s broadly defined,\nseasonally adjusted M-3 money supply"'
p109
aS'Circuit Systems Inc said it has\nbought all of the stock of (Ionic I'
p110
aS'The sharp decline in soybean crush ratios\nseen in the last few week'
p111
aS'Shr 23 cts vs 18 cts\n    Net 509,144 vs 277,834\n    Revs 2,258,341'
p112
aS'Shr loss 32 cts vs loss seven cts\n    Net loss 1,566,000 vs loss 29'
p113
aS'Latest Federal Reserve data suggest that\nthe central bank voted to'
p114
aS'"France\'s right wing government is facing\ngrowing pressure to modify"'
p115
aS'Oper shr profit six cts vs loss two cts\n    Oper net profit 225,000'
p116
aS'Houston Oil Trust said that independent\npetroleum engineers complet'
p117
aS'Shr loss 2.07 dlrs vs loss eight cts\n    Net loss 11,445,000 vs los'
p118
aS'"Japan\'s unadjusted consumer price index\n(base 1985) fell 0.4 pct to"'
p119
aS'Avery said its board authorizerd\na two for one stock split, an incr'
p120
aS'Monetary and credit growth rates in\nNew Zealand are not expected to'
p121
aS'Average interest rates on yen certificates\nof deposit, CD, fell to'
p122
aS'Japan is expected to cut the base lending\nrate for state financial'
p123
aS'Domestic demand is now expected to make\nno contribution to Australi'
p124
aS'Thailand exported 84,960 tonnes of rice\nin the week ended February'
p125
aS'The Tokyo Grain Exchange said it will raise\nthe margin requirement'
p126
aS'Talks on the possibility of reintroducing\nglobal coffee export quot'
p127
aS'The Italian treasury said annual coupon\nrates payable March 1988 on'
p128
aS'Indonesia"s agriculture sector will grow\nby just 1.0 pct in calenda'
p129
aS'Kuwait"s Oil Minister, in remarks\npublished today, said there were'
p130
aS'Indonesia appears to be nearing a\npolitical crossroads over measure'
p131
aS'"China\'s wheat crop this year is seriously\nthreatened by plant pests"'
p132
aS'"Saudi riyal interbank deposits were\nsteady at yesterday\'s higher le"'
p133
aS'"The Gulf oil state of Qatar, recovering\nslightly from last year\'s d"'
p134
aS'Gulf money markets have grown reasonably\nwell during the past decad'
p135
aS'"Saudi Arabian Oil Minister Hisham Nazer\nreiterated the kingdom\'s co"'
p136
aS'The International Coffee Organization\n(ICO ) council talks on reint'
p137
aS'Canadian and Egyptian wheat negotiators\nfailed to conclude an agree'
p138
aS'"Indonesia\'s wheat imports are expected\nto fall to 1.5 mln tonnes in"'
p139
aS'Zambia will retain its foreign-exchange\nauction system despite the'
p140
aS'"Indonesia\'s raw sugar output is likely\nto be 1.8 mln tonnes in cale"'
p141
aS'Toshin Steel Co Ltd <TOSS.T> and <Azuma\nSteel Co Ltd>, affiliates o'
p142
aS'Indonesia is unlikely to import copra\nfrom the Philippines in 1987'
p143
aS'"Japan\'s customs-cleared trade surplus in\nthe first 20 days of Febru"'
p144
aS'Nippon Light Metal Co Ltd <NLGT.T>, which\nhas annual capacity of 63'
p145
aS'Saudi crude oil output last month fell\nto an average of 3.5 mln bar'
p146
aS'"Indonesia\'s palm oil output is expected\nto rise and exports to incr"'
p147
aS'"Indonesia\'s exports of tea and cocoa\nwill continue to rise in calen"'
p148
aS'<Nippon Telegraph and Telephone Corp>\n(NTT) expects its profits to'
p149
aS'China has signed a 130 mln dlr loan\nagreement with the World Bank t'
p150
aS'"Japan\'s external reserves rose to a record\n51.73 billion dlrs at th"'
p151
aS'Talks on coffee export quotas at the\nInternational Coffee Organizat'
p152
aS'"India\'s sugar output to January 31 in\nthe 1986/87 season (October/S"'
p153
aS'The Dutch Central Bank said it has\naccepted bids totalling 4.8 bill'
p154
aS'Japanese importers bought some 95,000\ntonnes of Chinese soybeans la'
p155
aS'Shr 3.25 H.K. Dlrs vs 1.40\n    Final div 52 cents vs 38, making 75'
p156
aS'"Sweden\'s Wallenberg group fought back\na bid by the London-based Swe"'
p157
aS'Soybean imports are forecast to rise to\n425,000 tonnes in 1987/88 ('
p158
aS'<SHV (United Kingdom) Holding Co Ltd>\nsaid it was making a tender o'
p159
aS'The Bank of England said it forecast a\nshortage of around 800 mln s'
p160
aS'Thousands of black\nmineworkers roared support for a union proposal'
p161
aS'"Thailand\'s Commerce Ministry announced a\nnew tapioca export quota o"'
p162
aS'Mine and industry officials from\nmost member states of the Associat'
p163
aS'South Korea plans to take steps to keep\nits 1987 current account su'
p164
aS'and oil-bearing\nraw materials, fats and oils rose to 2.16 mln tonne'
p165
aS'Gold output in the northeast China\nprovince of Heilongjiang rose 22'
p166
aS'<Sale Tilney Plc> said it has purchased\n80 pct of the ordinary shar'
p167
aS'"The combined profits of Japan\'s major\ncorporations, excluding finan"'
p168
aS'The Indian State Trading Corporation\npurchased 46,000 tonnes of veg'
p169
aS'The Bank of Japan decided at a policy\nboard meeting to promote furt'
p170
aS'State-owned (Taiwan Power co) will boost\nits domestic borrowings to'
p171
aS'Dutch animal feed usage in the first\nhalf of the current season fro'
p172
aS'The Bank of England said the broad\nmeasure of U.K. Money supply, St'
p173
aS'<Exco International Plc>, a subsidiary of\nBritish and Commonwealth'
p174
aS'Pakistan will hold an import tender\ntomorrow for 6,000 tonnes of re'
p175
aS'<Coloroll Group Plc> said it has entered\ninto a conditional agreeme'
p176
aS'The Bank of England said it revised its\nforecast of the shortage in'
p177
aS'"Sweden\'s ruling Social Democratic\nParty gave full power to the gove"'
p178
aS'The Bank of England said it had provided\nthe money market with 37 m'
p179
aS'Japan and the U.S. Kick off top-level\ntrade talks tomorrow amid sig'
p180
aS'India will hold a buying tender on\nWednesday, March 4, for two to t'
p181
aS'<Carlton Communications Plc> has started\nthe current financial year'
p182
aS'The European Community Commission said\nit has opened an enquiry int'
p183
aS'Deputy oil ministers from six Gulf\nArab states will meet in Bahrain'
p184
aS'"Saudi Arabian Oil Minister Hisham Nazer\nreiterated the kingdom\'s co"'
p185
aS'"Kuwait\'s oil minister said in a newspaper\ninterview that there were"'
p186
aS'Taiwan plans another round of deep tariff\ncuts this year to help na'
p187
aS'Hutchison Whampoa Ltd <HWHH.HK>\nexpects satisfactory profits in 198'
p188
aS'Scientific Micro Systems Inc said it\nhas acquired Supermac Technolo'
p189
aS'American Express Co, rumored to be\nconsidering a spinoff of part of'
p190
aS'Ropak Corp said it received\nand accepted about 456,968 common share'
p191
aS'The port of Philadelphia was closed\nwhen a Cypriot oil tanker, Seap'
p192
aS'Penril Corp said it is seeking to\nsell its Triplett Electrical Inst'
p193
aS'Dale Burdett Inc said it\nfaces damages claims totalling about 420,0'
p194
aS'New Jersey-based overnight messenger\nPurolator Courier Corp said it'
p195
aS'Pakistan cotton production during the\ncurrent crop season (Sept/Mar'
p196
aS'Financial Corp of Santa\nBarbara said it has signed a definitive agr'
p197
aS'<Alcan Aluminiumwerke\nGmbH>, a subsidiary of Alcan Aluminium Ltd <A'
p198
aS'Parent Company net profit 12.8 mln Swiss francs vs 7.5 mln.\n    Ord'
p199
aS'<Four Seasons Hotels> said it and <VMS\nRealty Partners> of Chicago'
p200
aS'BBC AG Brown Boveri und Cie\n<BBCZ.Z> said it will omit dividend in'
p201
aS'Investor David F. La Roche of North\nKingstown, R.I., said he is off'
p202
aS'Period ended December 31, 1986\n    Oper shr loss 1.08 dlrs vs loss'
p203
aS'<Senior Engineering Group Plc> said it\nreached agreement with <Cron'
p204
aS'Cheung Kong (Holdings) Ltd <CKGH.HK>\nis expecting strong results th'
p205
aS'Viacom International Inc said it\nreceived revised merger offers fro'
p206
aS'The French Cereals Intervention Board,\nONIC, left its estimate of F'
p207
aS'Shr 1.19 dlrs vs 1.46 dlrs\n    Net 3,150,185 vs 2,665,284\n    Revs'
p208
aS'<Miller Tabak Hirsch and Co> said it\nhas received an accepted 3,424'
p209
aS'Coffee quota talks at the International\nCoffee Organization council'
p210
aS'Waste Management Corp said its\nboard voted a two-for-one stock spli'
p211
aS'Porex Technologies Corp said its\nboard declared an initial annual d'
p212
aS'Davis Water and Waste\nIndustries Inc said its board declared a 33-1'
p213
aS'Medco Containment Services\nInc said its board declared an initial a'
p214
aS'Pittston Co said it has\ntentatively agreed to acquire WTC Internati'
p215
aS'<SDC Sydney\nDevelopment Corp>, earlier reporting an increased nine'
p216
aS'Shr loss 11 cts\n    Loss 739,146\n    Revs 11,754,251\n    Note: in'
p217
aS'The Bank of England said it had offered\nborrowing facilities to tho'
p218
aS'Sight deposits by commercial banks at the\nSwiss National Bank rose'
p219
aS'Oper shr 17 cts vs 25 cts\n    Qtly div 15 cts vs 15 cts prior'
p220
aS'Oper shr 1.80 dlrs vs 1.46 dlrs\n    Oper net 25.0 mln vs 20.2 mln'
p221
aS'Qtly div 35 cts vs 35 cts in prior qtr\n    Payable April one\n    R'
p222
aS'Diagnostic Retrieval Systems Inc\nsaid it has made an offer to acqui'
p223
aS'The volume of contracts traded on the\nNew Zealand Futures Exchange'
p224
aS'Whittaker Corp said it will have a\ngain on the sale of discontinued'
p225
aS'The Japan Fund Inc said it has received\nan unsolicited offer from <'
p226
aS'Div 50 won vs 50 won\n    Net profit 6.91 billion won vs 6.10 billio'
p227
aS'Div 50 won vs 50 won\n    Net profit 35.4 billion won vs 34.2 billio'
p228
aS'Bank of New York Co said it and the\nmanagement of RMJ Securities Co'
p229
aS'Corning Glass Works said the\nexchange ratio for its previously anno'
p230
aS'World animal health experts called for a\ncampaign to eradicate the'
p231
aS'Turkish retail prices rose 2.7 pct in\nFebruary after 2.9 pct in Jan'
p232
aS'Bally Manufacturing Corp said it\ncompleted the acquisition of the G'
p233
aS'<Consolidated TVX Mining Corp> said it\nagreed to issue 7.8 mln trea'
p234
aS'Oper shr 17 cts vs 19 cts\n    Oper net 636,000 vs 358,000\n    Revs'
p235
aS'"Canada\'s industrial product price index\nrose 0.2 pct in January aft"'
p236
aS'Shr 22 cts vs 17 cts\n    Net 1,232,000 vs 834,000\n    Sales 24.1 m'
p237
aS'Qtly div three cts vs three cts prior\n    Pay April six\n    Record'
p238
aS'Qtly div from income 5.1 cts vs 3.035 dlrs in prior qtr\nincluding c'
p239
aS'Shr 35 cts vs 25 cts\n    Net 1,590,000 vs 1,140,000\n    Revs 32.2'
p240
aS'"American Nursery Products Inc\nsaid it purchased Miami-based Heinl\'s"'
p241
aS'Semi-annual div from income of 7.3 cts vs 1.0 cent in prior\nperiod'
p242
aS'<Multi-Step Products Inc>, earlier\nreporting an initial six month l'
p243
aS'"Esselte Business Systems Inc\'s\nEsselte Meto division said it has ac"'
p244
aS'The Federal Reserve is expected to\nenter the U.S. Government securi'
p245
aS'<Four Seasons Hotels Inc> and VMS Realty\nPartners said they agreed'
p246
aS'Stone Container Corp said it is\nsplitting its common stock 2-for-1'
p247
aS'Shr 81 cts vs 57 cts\n    Net 3,660,273 vs 2,437,914\n    Rev 28.5 m'
p248
aS'Shr loss 20 cts vs profit 96 cts\n    Net loss 499,000 vs profit 2,3'
p249
aS'Talks due today between management and\nunions to try to end the str'
p250
aS'AMAX Incx said it has identified\nadditional gold and silver ore res'
p251
aS'A study group said the United States\nshould increase its strategic'
p252
aS'Oper shr profit 36 cts vs loss 1.48 dlrs\n    Oper net profit 1,353,'
p253
aS'Shr 1.65 dlrs vs 1.50 dlrs\n    Net 5,370,000 vs 4,901,000\n    Rev'
p254
aS'Investor Sumner Redstone, who leads\none of the two groups vying for'
p255
aS'Montedison Spa <MONI.MI> said it has\nconcluded its negotiations wit'
p256
aS'UtiliCorp United Inc said it\ncompleted the acquisition of West Virg'
p257
aS'French operators last Friday requested\nlicences to export 10,500 to'
p258
aS'A study group said the United States\nshould increase its strategic'
p259
aS'Union Carbide Corp is looking to\nacquisitions and joint ventures to'
p260
aS'"Bank of America NT and SA\'s\n<BAC.N> West German branch said it is n"'
p261
aS'Semi div 13 cts vs 18 cts prior\n    Pay March 13\n    Record March'
p262
aS'Mthly div 4.5 cts vs 4.5 cts prior\n    Pay March 13\n    Record Mar'
p263
aS'Mthly div 3.6 cts vs 3.6 cts prior\n    Pay March 13\n    Record Mar'
p264
aS'Mthly div 7.7 cts vs 7.7 cts prior\n    Pay March 13\n    Record Mar'
p265
aS'Mthly div 7.3 cts vs 7.3 cts prior\n    Pay March 13\n    Record Mar'
p266
aS'Mthly div six cts vs six cts prior\n    Pay March 13\n    Record Mar'
p267
aS'The Canadian government is expected\nto announce later this week its'
p268
aS'Qtly div six cts vs six cts prior\n    Pay April 28\n    Record Marc'
p269
aS'"Dutch port and transport union, FNV,\nagreed to an employers\' reques"'
p270
aS'Qtly div 35 cts vs 35 cts prior\n    Pay April One\n    Record March'
p271
aS'The Federal Reserve entered the U.S.\nGovernment securities market t'
p272
aS'<Nippon Telegraph and Telephone Corp>\n(NTT) expects its profits to'
p273
aS'European Community steelmakers\npresented the Executive Commission w'
p274
aS'Shr 10 cts vs 14 cts\n    Net 531,896 vs 727,781\n    Revs 16.0 mln'
p275
aS'Qtly div 14 cts vs 14 cts prior\n    Pay March 13\n    Record March'
p276
aS'Shr 67 cts vs 23 cts\n    Net 5,220,000 vs 3,143,000\n    Revs 236.1'
p277
aS'Qtly div 10 cts vs 8-1/3 cts prior\n    Pay April 21\n    Record Mar'
p278
aS'Kapok Corp said it is in\ntechical default of its loans from Southea'
p279
aS'Shr 11 cts vs 13 cts\n    Net 1,037,690 vs 1,270,460\n    Sales 10.1'
p280
aS'Shr loss 14 cts vs loss 21 cts\n    Net loss 353,000 vs loss 541,000'
p281
aS'Shr six cts vs four cts\n    Net 383,189 vs 241,857\n    Revs 1,506,'
p282
aS'Qtly div 11 cts vs 11 cts prior\n    Pay April 17\n    Record March'
p283
aS'Oper Shr loss 40 cts vs loss 10 cts\n    Oper net loss 2,136,000 vs'
p284
aS'Shr loss four cts vs loss one ct\n    Net loss 413,021 vs loss 163,9'
p285
aS'Net income 154.7 mln pesos vs 127.5 mln\n    Operating revenues 4.42'
p286
aS'"Unocal Corp\'s Union Oil Co said it\nlowered its posted prices for cr"'
p287
aS'"Panhandle Eastern Corp\'s Trunkline Gas\nCo pipeline subsidiary said "'
p288
aS'WEDGE Group Inc, a Houston investment\nfirm with a 5.5 pct stake in'
p289
aS'Qtly div four cts vs four cts prior\n    Pay March 27\n    Record Ma'
p290
aS'Banner Industries Inc said 19.8 mln of\nthe outstanding 20 mln share'
p291
aS'Qtly div 36 cts vs 36 cts prior\n    Pay April one\n    Record March'
p292
aS'"Bank of America NT and SA\'s <BAC.N>\nWest German branch said it is n"'
p293
aS'OSR Corp said it has agreed\nto acquire the properties and assets of'
p294
aS'Mercury Entertainment Corp said it\nexpects improved results in 1987'
p295
aS'Cronus Industries Inc said it agreed to\nsell its heat transfer equi'
p296
aS'Qtly div 65 cts vs 65 cts prior\n    Pay May Seven\n    Record April'
p297
aS'Jacobson Stores Inc said its\nboard voted a three-for-two stock spli'
p298
aS'Oper shr 18 cts vs 51 cts\n    Oper net 1,048,000 vs 1,870,000'
p299
aS'Hoechst AG of West Germany said\nit has completed the acquisition of'
p300
aS'Americus Trust for American Home\nProducts Shares said it extended i'
p301
aS'Shr 59 cts vs 48 cts\n    Net 3,244,000 vs 2,584,000\n    Revs 169.3'
p302
aS'Talks at the extended special meeting of\nthe International Coffee O'
p303
aS'"Versatile Corp\'s shipbuilding subsidiary\nhas a letter of intent to "'
p304
aS'Privately-held Pantry Inc, which\noperates 477 convenience stores in'
p305
aS'Qtr ends Dec 31\n    Shr profit three cts vs loss three cts\n    Net'
p306
aS'Renouf Corp of New Zealand said it\nhas decided to proceed with its'
p307
aS'Cuba has told international sugar\noperators who have bought its sug'
p308
aS'B.F. Goodrich Co said it will phase\nout the production of aircraft'
p309
aS'Shr 73 cts vs 58 cts\n    Net 1,101,000 vs 901,000\n    Sales 32.9 m'
p310
aS'<Massachusetts Financial Services Co>\nsaid it has set the final inc'
p311
aS'U.S. tin disposals should have little\neffect on an agreement reache'
p312
aS'Mthly div 7.1 cts vs 7.1 cts prior\n    Pay March 31\n    Record Mar'
p313
aS'Mthly div 6.6 cts vs 6.6 cts prior\n    Pay March 31\n    Record Mar'
p314
aS'Mthly div 6.9 cts vs 6.9 cts prior\n    Pay March 31\n    Record Mar'
p315
aS'Mthly div 6.5 cts vs 6.8 cts prior\n    Pay March 31\n    Record Mar'
p316
aS'Mthly div 6.5 cts vs 6.5 cts prior\n    Pay March 31\n    Record Mar'
p317
aS'Diagnostic Products Corp president and\nchief executive officer Sigi'
p318
aS'Currency fluctuations may reassert their\ninfluence on the bullion m'
p319
aS'Shr 46 cts vs 42 cts\n    Net 3,418,000 vs 3,129,000\n    Revs 24.7'
p320
aS'Shr profit two cts vs loss 12 cts\n    Net profit 156,726 vs loss 77'
p321
aS'Mthly div 7.1 cts vs 7.1 cts prior\n    Pay March 31\n    Record Mar'
p322
aS'Mthly div 6.1 cts vs 6.1 cts prior\n    Pay March 31\n    Record Mar'
p323
aS'Mthly div 7.1 cts vs 7.1 cts prior\n    Pay March 31\n    Record Mar'
p324
aS'Convergent Technologies Inc\nsaid it has reached an agreement in pri'
p325
aS'The New York Mercantile Exchange set\nApril one for the debut of a n'
p326
aS'Rospatch Corp said it will\nhave a news release later in response to'
p327
aS'Qtly dividend 12-1/2 cts vs 12-1/2 cts\n    Pay March 31\n    Record'
p328
aS'Argentine crude oil production was\ndown 10.8 pct in January 1987 to'
p329
aS'"North American Group Ltd\'s North\nAmerican Acquisition Corp said it "'
p330
aS'A bidding war for Viacom International\nInc, one of the largest U.S.'
p331
aS'Oper shr five cts vs 29 cts\n    Oper net 151,000 vs 867,000\n    Re'
p332
aS'"Canada\'s decision to raise the issue\nof a free trade pact with the "'
p333
aS'Shr 24 cts vs 21 cts\n    Pay May 25\n    Record May eight\n Reuter'
p334
aS'<Wavehill International Ventures Inc>\nsaid it has agreed to acquire'
p335
aS'Security Pacific Corp said it\ncompleted its planned merger with Dia'
p336
aS'Shr six cts vs five cts\n    Net 188,000 vs 130,000\n    Revs 12.2 m'
p337
aS'Imperial Chemical Industries PLC, the\nlargest chemical company in t'
p338
aS'Oper shr profit six cts vs loss 20 cts\n    Oper net profit 734,000'
p339
aS'"Albertson\'s Inc said its board has\nadopted a stockholder rights pla"'
p340
aS'Rospatch Corp said it\nrejected a proposal by Diagnostic Retrieval S'
p341
aS'Shr profit six cts vs loss 4.51 dlrs\n    Net profit 815,167 vs loss'
p342
aS'International Minerals and\nChemical Corp said it completed its acqu'
p343
aS'JWT Group Inc has not been approached\nby former Ted Bates Worldwide'
p344
aS'Shr loss 18 cts vs loss one ct\n    Net loss 1,343,000 vs loss 49,00'
p345
aS'Foote Mineral Co said it signed a\nletter of intent with Shieldalloy'
p346
aS'All major grain producing countries\nmust do their part to help redu'
p347
aS'Gelco Corp said that,\nexcluding the effects of a restructuring plan'
p348
aS'UtiliCorp United Inc said it\nhas closed the previously announced ac'
p349
aS'Chicago physician LeRoy Pesch said he\nhas had discussions with seve'
p350
aS'Efforts to break an impasse between\ncoffee exporting and importing'
p351
aS'Shr 16 cts vs 22 cts\n    Net 1,226,597 vs 1,327,016\n    Revs 6,598'
p352
aS'Coastal Bancorp said the U.S.\nFederal Reserve Board approved the ac'
p353
aS'Qtr ended Dec 31\n    Shr profit nil vs loss nil\n    Net profit 858'
p354
aS'AMCA International Ltd said it finalized\nagreement to sell certain'
p355
aS'"<Scott\'s Hospitality Inc> said it\nacquired Capital Food Services Lt"'
p356
aS'Union National Corp said it\nsigned a definitive agreement under whi'
p357
aS'Several analysts said they do not\nbelieve another suitor will top t'
p358
aS'Shr 15 cts vs 55 cts\n    Net 557,000 vs 2,020,000\n    Revs 8,872,0'
p359
aS'Qtr ended Jan 31\n    Shr 33 cts vs 29 cts\n    Net 14.8 mln vs 11 m'
p360
aS'Qtly div 25 cts vs 25 cts\n    Pay April 24\n    Record March 31\n R'
p361
aS'Shr 24 cts\n    Net 412,737\n    Revs 605,321\n    Year\n    Shr 93'
p362
aS'Shr loss 85 cts vs loss 88 cts\n    Net loss 2,410,000 vs loss 2,466'
p363
aS'Shr profit four cts vs loss 16 cts\n    Net profit 155,383 vs loss 5'
p364
aS'Shr 81 cts vs 57 cts\n    Net 3,660,273 vs 2,437,914\n    Revs 28.5'
p365
aS'Ferro Corp said it has formed a\njoint venture with Paris-based Alst'
p366
aS'The New York Mercantile Exchange said\nit will introduce exchanges f'
p367
aS'Refined copper stocks held by U.S.\nrefineries fell to 109,200 short'
p368
aS'"<CCL Industries Inc>\'s Continental Can\nCanada Inc unit said it acqu"'
p369
aS'The American Pork Congress kicks off\ntomorrow, March 3, in Indianap'
p370
aS'Refined copper stocks held by\nrefineries outside the U.S. increased'
p371
aS'<MFS Managed Muncipal Trust Bond>\nsaid it declared a monthly payout'
p372
aS'U.S. brass mill copper stocks fell to\n185,400 short tons (copper co'
p373
aS'MFS Municipal Income Trust said it\ndeclared a monthly income distri'
p374
aS'Shr 1.35 dlrs vs two dlrs\n    Net 6,195,000 vs 9,202,000\n    Sales'
p375
aS'Armtek Corp, previously the\nArmstrong Rubber Co, said it agreed to'
p376
aS'Qtly dividend 28 cts vs 28 cts\n    Pay April 24\n    Record April 1'
p377
aS'The New York Mercantile Exchange expects\nto submit a propane future'
p378
aS'U.S. trade representative Clayton\nYeutter today said that if the Eu'
p379
aS'"Oil traders in New York said Exxon\nCorp\'s Exxon U.S.A. unit reduced"'
p380
aS'Greece, responding to a warning by Turkey\nagainst conducting oil ac'
p381
aS'Leucadia National Corp said two of\nits subsidiaries have acquired a'
p382
aS'Oper shr loss eight cts vs profit 20 cts\n    Oper net loss 768,000'
p383
aS'"Australia\'s broad money supply rose 10.3\npct in the year ended Janu"'
p384
aS'Microbiological Research Corp\nsaid it entered into a letter of inte'
p385
aS'A special meeting of the International\nCoffee Organization (ICO) co'
p386
aS'French industry is failing to produce the\ngoods its markets need an'
p387
aS'Mitchell Hutchins Asset Management\nInc, a New York investment firm'
p388
aS'Shr 32 cts vs 22 cts\n    Net 3,454,000 vs 2,224,000\n    Revs 33.2'
p389
aS'Shr profit 14 cts vs profit two cts\n    Net profit 452,723 vs profi'
p390
aS'Rexnord Inc said it will redeem\nall of its preferred stock purchase'
p391
aS'(Groupe Cantrex Inc) said it plans to\nmerge a new wholly-owned subs'
p392
aS'Two affiliated investment firms and\nthe investment funds they contr'
p393
aS'Hartford Insurance Group, a unit\nof New York-based ITT Corp, said h'
p394
aS'The federal Securities and Exchange\nCommission (SEC) is looking for'
p395
aS'February volume at the Chicago Board of\nTrade, CBT, declined 14 pct'
p396
aS'Grain trade representatives continued\nto speculate that the Reagan'
p397
aS'Canadian seafarers are almost certain\nto go on strike this spring i'
p398
aS'Oper shr loss 22 cts vs profit 10 cts\n    Oper net loss 1,626,000 v'
p399
aS'Qtr ended Jan 31\n    Shr 1.16 dlrs vs 1.15 dlrs\n    Net 32.4 mln v'
p400
aS'Kentucky Central Life Insurance\nCo said it declared a semi-annual d'
p401
aS'Qtly div 28 cts vs 28 cts prior\n    Pay April 20\n    Record March'
p402
aS'"Japan\'s seasonally adjusted unemployment\nrate rose to a record 3.0 "'
p403
aS'"Ford Europe\'s net earnings soared by 71\nper cent last year to 559 m"'
p404
aS'"South Korea\'s index of leading indicators\nfell 0.1 pct to 164.1 (ba"'
p405
aS'The yen should stabilize at around\n152 to 153 to the U.S. Dollar fo'
p406
aS'Opec remains within its agreed output\nceiling of 15.8 mln barrels a'
p407
aS'"The government\'s industry aid and\nprotection review body, the Indus"'
p408
aS'The failure of the International Coffee\nOrganization (ICO) to reach'
p409
aS'"New Zealand\'s current account deficit\nfor the quarter ended Decembe"'
p410
aS'Equity investment company <Battery\nGroup Ltd> said it had agreed to'
p411
aS'Net 138.20 mln dlrs vs 87.80 mln.\n    Shr 24.8 cents vs 17.8\n    F'
p412
aS'The Malaysian government said it\nhas re-imposed export duties on ru'
p413
aS'The government said it raised the\nexport duty on processed palm oil'
p414
aS'Net profit 57.1 mln dlrs vs loss 69.1 mln.\n    Net is equity accoun'
p415
aS'"Japan\'s unemployment rate is expected to\ncontinue to climb to about"'
p416
aS'"South Korea\'s customs-cleared trade\nsurplus narrowed to 110 mln dlr"'
p417
aS'The Ministry of International Trade and\nIndustry (MITI) acted to ti'
p418
aS'Finnish unemployment was 6.7 pct in\nDecember last year compared wit'
p419
aS'"Thailand\'s improving economy will likely\ncause foreign reserves to "'
p420
aS'Sweden had a 1986 current balance of\npayments surplus of 7.6 billio'
p421
aS'Shr 27.5p vs 24.3p\n    Div 3.95p vs 3.34p making 6.5p vs 5.5p'
p422
aS'The Philippines must devalue the peso if\nit wants its exports to re'
p423
aS'The U.K. Trade Department said it would\nnot refer Consolidated Gold'
p424
aS'Zaire agreed to limit its tin\nexports to 1,736 tonnes for 12 months'
p425
aS'The Bank of England said it forecast a\nshortage of around 350 mln s'
p426
aS'Saudi riyal interbank deposit rates\neased across the board in a dul'
p427
aS'Mexican state oil firm Petroleos Mexicanos\n(Pemex) signed for a 500'
p428
aS'Shr profit 15.9p vs 2.25p loss\n    Div 3p making 4.5p vs nil\n    T'
p429
aS'Comalco Ltd <CMAC.S> said its return\nto profit reflected reduced co'
p430
aS'CRA Ltd <CRAA.S> said it expected to\npay a final 1986 dividend of n'
p431
aS'Swiss capital exports rose to 4.64\nbillion francs in January after'
p432
aS'China called on the United States to\nremove curbs on its exports, t'
p433
aS'The Bundesbank is unlikely to change\nits credit policies at its cen'
p434
aS'"Italy\'s consumer price index rose 0.4 pct\nin February compared with"'
p435
aS'Mobil Corp <MOB.N> of the U.S. Plans to\nopen an office in Peking to'
p436
aS'KLM Royal Dutch Airlines <KLM.A> said\nit agreed to take a 15 pct st'
p437
aS'"Britain\'s gold and currency reserves\nshowed an underlying rise of 2"'
p438
aS'Comalco Ltd said its return to profit\nreflected reduced costs, impr'
p439
aS'Ultramar Plc <UMAR.L> said it had reached\nagreement in principle to'
p440
aS'"Hong Kong\'s broadly defined M3 money\nsupply rose 2.2 pct to 607.17 "'
p441
aS'<Underwoods Plc> said it had not been\npossible to agree terms on a'
p442
aS'The Bundesbank is unlikely to change\nits credit policies at its cen'
p443
aS'The Bank of England said it revised up\nits forecast of the shortage'
p444
aS'Pakistan will retender for 6,000 tonnes\nof refined bleached deodori'
p445
aS'Mobil Oil Corp of U.S. Plans to open an\noffice in Peking to develop'
p446
aS'Opec remains within its agreed output\nceiling of 15.8 mln barrels a'
p447
aS'The Bank of England said it provided 24\nmln stg help to the money m'
p448
aS'"Japan\'s unemployment rate is expected to\ncontinue to climb to about"'
p449
aS'"The price of Hongkong and Shanghai\nHotels Ltd <SHLH.HK>\'s stock soa"'
p450
aS'<Bryson Oil and Gas Plc> said it paid a\ncash consideration of aroun'
p451
aS'Shr 43 cts vs 30 cts\n    Net 10.6 mln vs 5,967,000\n    Revs 62.9 m'
p452
aS'Employers and the port union, FNV, are\nto meet again this afternoon'
p453
aS'The Unilever Plc and NV <UN.A> group saw\nimproved performance in al'
p454
aS'The U.S. index of leading indicators\nfell a seasonally adjusted 1.0'
p455
aS'Jan 31 end\n    Shr 1.40 dlrs vs 1.10 dlrs\n    Net 16.4 mln vs 12.9'
p456
aS'"This morning\'s sharp decline in coffee\nprices, following the breakd"'
p457
aS'Greenwood Resources Inc said it has sold\nits 4,300,000 common share'
p458
aS'"H.J. Heinz <HNZ.N> chairman Tony O\'Reilly\nwould be interested in bu"'
p459
aS'Equatorial Communications\nCo said it expects to report losses of ab'
p460
aS'Transamerica Corp said it will have\nan after-tax gain of about 10 m'
p461
aS'Shr 1.78 dlrs vs 1.64 dlrs\n    Net 117 mln vs 106 mln\n    Sales 2.'
p462
aS'<BP Oil Ltd>, the U.K. Marketing and\nrefining arm of British Petrol'
p463
aS'The U.S. Wants Japan to eliminate import\ncontrols on agricultural p'
p464
aS'Firstcorp Inc said it weill report\nan after-tax gain of 1,827,000 d'
p465
aS'Oper shr 43 cts vs 21 cts\n    Oper net 6,846,000 vs 3,386,000'
p466
aS'The Bank of England said it had revised\nits forecast of the shortag'
p467
aS'Viacom International Inc said <National\nAmusements Inc> has again r'
p468
a(lp469
S'cocoa'
p470
aS'sorghum'
p471
aS'wheat'
p472
aS'earn'
p473
aS'acq'
p474
aS'earn'
p475
aS'acq'
p476
aS'earn'
p477
aS'earn'
p478
aS'earn'
p479
aS'grain'
p480
aS'copper'
p481
aS'earn'
p482
aS'earn'
p483
aS'earn'
p484
aS'housing'
p485
aS'earn'
p486
aS'earn'
p487
aS'earn'
p488
aS'earn'
p489
aS'earn'
p490
aS'coffee'
p491
aS'ship'
p492
aS'acq'
p493
aS'sugar'
p494
aS'trade'
p495
aS'reserves'
p496
aS'ship'
p497
aS'earn'
p498
aS'earn'
p499
aS'earn'
p500
aS'corn'
p501
aS'money-supply'
p502
aS'ship'
p503
aS'earn'
p504
aS'earn'
p505
aS'earn'
p506
aS'acq'
p507
aS'soy-meal'
p508
aS'earn'
p509
aS'earn'
p510
aS'coffee'
p511
aS'money-supply'
p512
aS'money-supply'
p513
aS'earn'
p514
aS'earn'
p515
aS'earn'
p516
aS'earn'
p517
aS'earn'
p518
aS'earn'
p519
aS'earn'
p520
aS'acq'
p521
aS'oilseed'
p522
aS'earn'
p523
aS'money-supply'
p524
aS'cotton'
p525
aS'sugar'
p526
aS'ship'
p527
aS'earn'
p528
aS'money-supply'
p529
aS'acq'
p530
aS'money-supply'
p531
aS'earn'
p532
aS'livestock'
p533
aS'earn'
p534
aS'grain'
p535
aS'acq'
p536
aS'earn'
p537
aS'crude'
p538
aS'acq'
p539
aS'earn'
p540
aS'acq'
p541
aS'acq'
p542
aS'grain'
p543
aS'earn'
p544
aS'earn'
p545
aS'earn'
p546
aS'earn'
p547
aS'earn'
p548
aS'crude'
p549
aS'earn'
p550
aS'earn'
p551
aS'earn'
p552
aS'earn'
p553
aS'earn'
p554
aS'acq'
p555
aS'acq'
p556
aS'earn'
p557
aS'acq'
p558
aS'earn'
p559
aS'earn'
p560
aS'earn'
p561
aS'earn'
p562
aS'earn'
p563
aS'earn'
p564
aS'earn'
p565
aS'nat-gas'
p566
aS'gnp'
p567
aS'wheat'
p568
aS'earn'
p569
aS'acq'
p570
aS'acq'
p571
aS'earn'
p572
aS'crude'
p573
aS'corn'
p574
aS'crude'
p575
aS'earn'
p576
aS'oat'
p577
aS'money-supply'
p578
aS'acq'
p579
aS'soy-meal'
p580
aS'earn'
p581
aS'earn'
p582
aS'money-supply'
p583
aS'gnp'
p584
aS'earn'
p585
aS'crude'
p586
aS'earn'
p587
aS'cpi'
p588
aS'earn'
p589
aS'money-supply'
p590
aS'interest'
p591
aS'interest'
p592
aS'bop'
p593
aS'rice'
p594
aS'oilseed'
p595
aS'coffee'
p596
aS'interest'
p597
aS'cotton'
p598
aS'crude'
p599
aS'crude'
p600
aS'wheat'
p601
aS'crude'
p602
aS'crude'
p603
aS'money-fx'
p604
aS'crude'
p605
aS'coffee'
p606
aS'wheat'
p607
aS'wheat'
p608
aS'money-fx'
p609
aS'sugar'
p610
aS'acq'
p611
aS'copra-cake'
p612
aS'trade'
p613
aS'alum'
p614
aS'crude'
p615
aS'palm-oil'
p616
aS'coffee'
p617
aS'earn'
p618
aS'ship'
p619
aS'reserves'
p620
aS'coffee'
p621
aS'sugar'
p622
aS'interest'
p623
aS'soybean'
p624
aS'earn'
p625
aS'acq'
p626
aS'soy-meal'
p627
aS'acq'
p628
aS'interest'
p629
aS'strategic-metal'
p630
aS'tapioca'
p631
aS'tin'
p632
aS'bop'
p633
aS'groundnut-oil'
p634
aS'gold'
p635
aS'acq'
p636
aS'earn'
p637
aS'palm-oil'
p638
aS'interest'
p639
aS'reserves'
p640
aS'rape-meal'
p641
aS'money-supply'
p642
aS'acq'
p643
aS'palm-oil'
p644
aS'acq'
p645
aS'interest'
p646
aS'trade'
p647
aS'interest'
p648
aS'trade'
p649
aS'sugar'
p650
aS'earn'
p651
aS'strategic-metal'
p652
aS'crude'
p653
aS'crude'
p654
aS'crude'
p655
aS'trade'
p656
aS'earn'
p657
aS'acq'
p658
aS'acq'
p659
aS'acq'
p660
aS'ship'
p661
aS'acq'
p662
aS'acq'
p663
aS'acq'
p664
aS'cotton'
p665
aS'acq'
p666
aS'alum'
p667
aS'earn'
p668
aS'acq'
p669
aS'earn'
p670
aS'acq'
p671
aS'earn'
p672
aS'acq'
p673
aS'earn'
p674
aS'acq'
p675
aS'barley'
p676
aS'earn'
p677
aS'acq'
p678
aS'coffee'
p679
aS'earn'
p680
aS'earn'
p681
aS'earn'
p682
aS'earn'
p683
aS'acq'
p684
aS'earn'
p685
aS'earn'
p686
aS'interest'
p687
aS'reserves'
p688
aS'earn'
p689
aS'earn'
p690
aS'earn'
p691
aS'acq'
p692
aS'dlr'
p693
aS'earn'
p694
aS'acq'
p695
aS'earn'
p696
aS'earn'
p697
aS'acq'
p698
aS'acq'
p699
aS'l-cattle'
p700
aS'retail'
p701
aS'acq'
p702
aS'platinum'
p703
aS'earn'
p704
aS'ipi'
p705
aS'earn'
p706
aS'earn'
p707
aS'earn'
p708
aS'earn'
p709
aS'acq'
p710
aS'earn'
p711
aS'acq'
p712
aS'acq'
p713
aS'interest'
p714
aS'acq'
p715
aS'earn'
p716
aS'earn'
p717
aS'earn'
p718
aS'oilseed'
p719
aS'silver'
p720
aS'crude'
p721
aS'earn'
p722
aS'earn'
p723
aS'acq'
p724
aS'acq'
p725
aS'acq'
p726
aS'barley'
p727
aS'crude'
p728
aS'acq'
p729
aS'acq'
p730
aS'earn'
p731
aS'earn'
p732
aS'earn'
p733
aS'earn'
p734
aS'earn'
p735
aS'earn'
p736
aS'corn'
p737
aS'earn'
p738
aS'ship'
p739
aS'earn'
p740
aS'interest'
p741
aS'earn'
p742
aS'iron-steel'
p743
aS'earn'
p744
aS'earn'
p745
aS'earn'
p746
aS'earn'
p747
aS'acq'
p748
aS'earn'
p749
aS'earn'
p750
aS'earn'
p751
aS'earn'
p752
aS'earn'
p753
aS'earn'
p754
aS'earn'
p755
aS'crude'
p756
aS'nat-gas'
p757
aS'acq'
p758
aS'earn'
p759
aS'acq'
p760
aS'earn'
p761
aS'acq'
p762
aS'acq'
p763
aS'earn'
p764
aS'acq'
p765
aS'earn'
p766
aS'earn'
p767
aS'earn'
p768
aS'acq'
p769
aS'acq'
p770
aS'earn'
p771
aS'coffee'
p772
aS'ship'
p773
aS'acq'
p774
aS'earn'
p775
aS'acq'
p776
aS'sugar'
p777
aS'rubber'
p778
aS'earn'
p779
aS'earn'
p780
aS'tin'
p781
aS'earn'
p782
aS'earn'
p783
aS'earn'
p784
aS'earn'
p785
aS'earn'
p786
aS'earn'
p787
aS'gold'
p788
aS'earn'
p789
aS'earn'
p790
aS'earn'
p791
aS'earn'
p792
aS'earn'
p793
aS'acq'
p794
aS'crude'
p795
aS'acq'
p796
aS'earn'
p797
aS'nat-gas'
p798
aS'acq'
p799
aS'acq'
p800
aS'earn'
p801
aS'trade'
p802
aS'earn'
p803
aS'acq'
p804
aS'acq'
p805
aS'earn'
p806
aS'acq'
p807
aS'earn'
p808
aS'acq'
p809
aS'acq'
p810
aS'earn'
p811
aS'acq'
p812
aS'acq'
p813
aS'earn'
p814
aS'acq'
p815
aS'wheat'
p816
aS'earn'
p817
aS'acq'
p818
aS'acq'
p819
aS'coffee'
p820
aS'earn'
p821
aS'acq'
p822
aS'earn'
p823
aS'acq'
p824
aS'acq'
p825
aS'acq'
p826
aS'acq'
p827
aS'earn'
p828
aS'earn'
p829
aS'earn'
p830
aS'earn'
p831
aS'earn'
p832
aS'earn'
p833
aS'earn'
p834
aS'acq'
p835
aS'crude'
p836
aS'copper'
p837
aS'acq'
p838
aS'hog'
p839
aS'copper'
p840
aS'earn'
p841
aS'copper'
p842
aS'earn'
p843
aS'earn'
p844
aS'acq'
p845
aS'earn'
p846
aS'gas'
p847
aS'soybean'
p848
aS'heat'
p849
aS'crude'
p850
aS'acq'
p851
aS'earn'
p852
aS'money-supply'
p853
aS'acq'
p854
aS'coffee'
p855
aS'trade'
p856
aS'acq'
p857
aS'earn'
p858
aS'earn'
p859
aS'acq'
p860
aS'acq'
p861
aS'acq'
p862
aS'earn'
p863
aS'acq'
p864
aS'soybean'
p865
aS'wheat'
p866
aS'ship'
p867
aS'earn'
p868
aS'earn'
p869
aS'earn'
p870
aS'earn'
p871
aS'jobs'
p872
aS'earn'
p873
aS'lei'
p874
aS'dlr'
p875
aS'crude'
p876
aS'wheat'
p877
aS'coffee'
p878
aS'bop'
p879
aS'acq'
p880
aS'earn'
p881
aS'rubber'
p882
aS'palm-oil'
p883
aS'earn'
p884
aS'jobs'
p885
aS'bop'
p886
aS'trade'
p887
aS'jobs'
p888
aS'reserves'
p889
aS'bop'
p890
aS'earn'
p891
aS'money-fx'
p892
aS'acq'
p893
aS'tin'
p894
aS'interest'
p895
aS'saudriyal'
p896
aS'crude'
p897
aS'earn'
p898
aS'alum'
p899
aS'earn'
p900
aS'trade'
p901
aS'trade'
p902
aS'money-fx'
p903
aS'cpi'
p904
aS'crude'
p905
aS'acq'
p906
aS'reserves'
p907
aS'alum'
p908
aS'acq'
p909
aS'money-supply'
p910
aS'acq'
p911
aS'money-fx'
p912
aS'interest'
p913
aS'palm-oil'
p914
aS'crude'
p915
aS'crude'
p916
aS'interest'
p917
aS'jobs'
p918
aS'acq'
p919
aS'acq'
p920
aS'earn'
p921
aS'ship'
p922
aS'earn'
p923
aS'lei'
p924
aS'earn'
p925
aS'coffee'
p926
aS'acq'
p927
aS'acq'
p928
aS'earn'
p929
aS'earn'
p930
aS'earn'
p931
aS'crude'
p932
aS'trade'
p933
aS'earn'
p934
aS'earn'
p935
aS'interest'
p936
aS'acq'
p937
a(lp938
S'BAHIA COCOA REVIEW'
p939
aS'NATIONAL AVERAGE PRICES FOR FARMER-OWNED RESERVE'
p940
aS'ARGENTINE 1986/87 GRAIN/OILSEED REGISTRATIONS'
p941
aS'CHAMPION PRODUCTS <CH> APPROVES STOCK SPLIT'
p942
aS'COMPUTER TERMINAL SYSTEMS <CPML> COMPLETES SALE'
p943
aS'COBANCO INC <CBCO> YEAR NET'
p944
aS'OHIO MATTRESS <OMT> MAY HAVE LOWER 1ST QTR NET'
p945
aS'AM INTERNATIONAL INC <AM> 2ND QTR JAN 31'
p946
aS'BROWN-FORMAN INC <BFD> 4TH QTR NET'
p947
aS'DEAN FOODS <DF> SEES STRONG 4TH QTR EARNINGS'
p948
aS'BONUS WHEAT FLOUR FOR NORTH YEMEN  -- USDA'
p949
aS'MAGMA LOWERS COPPER 0.75 CENT TO 66 CTS'
p950
aS'BROWN-FORMAN <BFDB> SETS STOCK SPLIT, UPS PAYOUT'
p951
aS'ESQUIRE RADIO AND ELECTRONICS INC <EE> 4TH QTR'
p952
aS'UNITED PRESIDENTIAL CORP <UPCO> 4TH QTR NET'
p953
aS'JANUARY HOUSING SALES DROP, REALTY GROUP SAYS'
p954
aS'OWENS AND MINOR INC <OBOD> RAISES QTLY DIVIDEND'
p955
aS'COMPUTER LANGUAGE RESEARCH IN <CLRI> 4TH QTR'
p956
aS'<CINRAM LTD> 4TH QTR NET'
p957
aS'STANDARD TRUSTCO SEES BETTER YEAR'
p958
aS'HANDY AND HARMAN <HNH> 4TH QTR LOSS'
p959
aS'ICO PRODUCERS TO PRESENT NEW COFFEE PROPOSAL'
p960
aS'"MCLEAN\'S <MII> U.S. LINES SETS ASSET TRANSFER"'
p961
aS'CHEMLAWN <CHEM> RISES ON HOPES FOR HIGHER BIDS'
p962
aS'U.S. SUGAR IMPORTS DOWN IN WEEK - USDA'
p963
aS'BRAZIL ANTI-INFLATION PLAN LIMPS TO ANNIVERSARY'
p964
aS'N.Z. OFFICIAL FOREIGN RESERVES FALL IN JANUARY'
p965
aS'AGENCY REPORTS 39 SHIPS WAITING AT PANAMA CANAL'
p966
aS'AMERICA FIRST MORTGAGE SETS SPECIAL PAYOUT'
p967
aS'EMHART CORP <EMH> QTLY DIVIDEND'
p968
aS'AM INTERNATIONAL <AM> CITES STRONG PROSPECTS'
p969
aS'CCC CREDITS FOR HONDURAS SWITCHED TO WHITE CORN'
p970
aS'ASSETS OF U.S. MONEY FUNDS ROSE IN WEEK'
p971
aS'GULF BARGE FREIGHT RATES UP FURTHER ON CALL'
p972
aS'GULF APPLIED <GATS> SELLS UNITS, SEES GAIN'
p973
aS'FARMERS GROUP INC <FGRP> 4TH QTR NET'
p974
aS'POTOMAC ELECTRIC POWER CO <POM> JAN NET'
p975
aS'<COFAB INC> BUYS GULFEX FOR UNDISCLOSED AMOUNT'
p976
aS'U.S. WEEKLY SOYBEAN CRUSH 21,782,929 BUSHELS'
p977
aS'TULTEX CORP <TTX> SETS QUARTERLY DIVIDEND'
p978
aS'ATICO FINANCIAL CORP <ATFC> 4TH QTR NET'
p979
aS'ICO EXPORTERS TO MODIFY NEW PROPOSAL'
p980
aS'NEW YORK BUSINESS LOANS FALL 195 MLN DLRS'
p981
aS'N.Y. BANK DISCOUNT BORROWINGS 64 MLN DLRS'
p982
aS'PHILIPPINE LONG DISTANCE <PHI> YEAR NET'
p983
aS'LIBERTY ALL-STAR EQUITY FUND INITIAL DIV'
p984
aS'COMBUSTION ENGINEERING INC <CSP> REGULAR DIV'
p985
aS'TONKA CORP <TKA> RAISES DIVIDEND'
p986
aS'BDM INTERNATIONAL <BDM> INCREASES QTRLY DIVS'
p987
aS'SYSTEMATICS INC <SYST> REGULAR PAYOUT'
p988
aS'<IVACO INC> YEAR NET'
p989
aS'INVESTMENT FIRMS CUT CYCLOPS <CYL> STAKE'
p990
aS'ASCS TERMINAL MARKET VALUES FOR PIK GRAIN'
p991
aS'CORADIAN CORP <CDIN> 4TH QTR NET'
p992
aS'N.Z. TRADING BANK DEPOSIT GROWTH RISES SLIGHTLY'
p993
aS'WORLD MARKET PRICE FOR UPLAND COTTON - USDA'
p994
aS'SUGAR QUOTA IMPORTS DETAILED -- USDA'
p995
aS'GRAIN SHIPS LOADING AT PORTLAND'
p996
aS'MERIDIAN BANCORP INC <MRDN> SETS REGULAR PAYOUT'
p997
aS'U.S. BANK DISCOUNT BORROWINGS 310 MLN DLRS'
p998
aS'AMERICAN EXPRESS <AXP> SEEN IN POSSIBLE SPINNOFF'
p999
aS'U.S. M-1 MONEY SUPPLY ROSE 2.1 BILLION DLRS'
p1000
aS'LIBERTY ALL-STAR <USA> SETS INITIAL PAYOUT'
p1001
aS'CHINESE PORK OUTPUT SEEN LOWER -- USDA'
p1002
aS'IVACO SEES MINIMAL FIRST QUARTER EARNINGS'
p1003
aS'U.S. GRAIN CARLOADINGS FALL IN WEEK'
p1004
aS'HONG KONG FIRM UPS WRATHER<WCO> STAKE TO 11 PCT'
p1005
aS'COLECO INDUSTRIES INC <CLO> 4TH QTR'
p1006
aS'DIAMOND SHAMROCK (DIA) CUTS CRUDE PRICES'
p1007
aS'LIEBERT CORP <LIEB> APPROVES MERGER'
p1008
aS'COLECO INDUSTRIES <CLC> SEES PROFIT IN 1987'
p1009
aS'GULF APPLIED TECHNOLOGIES <GATS> SELLS UNITS'
p1010
aS'INVESTMENT GROUP RAISES ROBESON <RBSN> STAKE'
p1011
aS'GAO LIKELY TO SHOW CERTS MORE COSTLY THAN CASH'
p1012
aS'DAHLBERG INC <DAHL> 4TH QTR NET'
p1013
aS'CITY NATIONAL CORP <CTYN> RAISES DIVIDEND'
p1014
aS'<PAGE PETROLEUM LTD> YEAR LOSS'
p1015
aS'IDB COMMUNICATIONS GROUP INC <IDBX> YEAR NET'
p1016
aS'ARMOR ALL PRODUCTS CORP <ARMR> QUARTERLY DIV'
p1017
aS'OPEC MAY HAVE TO MEET TO FIRM PRICES - ANALYSTS'
p1018
aS'CENERGY <CRG> REPORTS 4TH QTR NET PROFIT'
p1019
aS'NORTHERN TELECOM LTD <NT> DECLARES STOCK SPLIT'
p1020
aS'TORCHMARK <TMK> AUTHORIZES STOCK REPURCHASE'
p1021
aS'TECHAMERICA GROUP INC <TCH> 4TH QTR LOSS'
p1022
aS'WILFRED AMERICAN EDUCATIONAL <WAE> REGULAR DIV'
p1023
aS'DREXEL OFFICIAL HAS STAKE IN EPSILON DATA <EPSI>'
p1024
aS'<NOVA> WINS GOVERNMENT OKAY FOR HUSKY <HYO> DEAL'
p1025
aS'POTOMAC ELECTRIC POWER CO <POM> JANUARY NET'
p1026
aS'SUFFIELD FINANCIAL <SSBK> GETS FED APPROVAL'
p1027
aS'AFG INDUSTRIES INC <AFG> QUARTERLY DIVIDEND'
p1028
aS'<GSW INC> YEAR NET'
p1029
aS'SANTA ANITA REALTY <SAR> QUARTERLY DIVIDEND'
p1030
aS'LIQUID AIR CORP <LANA> QUARTERLY DIVIDEND'
p1031
aS'(MARSHALL STEEL LTD) YEAR NET'
p1032
aS'MARSHALL STEEL DETAILS GAIN FROM UNIT SALE'
p1033
aS'MAYFAIR INDUSTRIES INC <MAYF> 4TH QTR NET'
p1034
aS'LNG IMPORTS FROM ALGERIA UNLIKELY IN 1987'
p1035
aS'SWISS ECONOMY IN EXCELLENT CONDITION, OECD SAYS'
p1036
aS'U.S. WHEAT BONUS TO SOVIET CALLED DORMANT'
p1037
aS'ALATENN RESOURCES INC <ATNG> 4TH QTR NET'
p1038
aS'VERSATILE TO SELL UNIT TO VICON'
p1039
aS'VIDEOTRON BUYS INTO EXHIBIT COMPANY'
p1040
aS'<MEMOTEC DATA INC> YEAR NET'
p1041
aS'TEXACO CANADA <TXC> LOWERS CRUDE POSTINGS'
p1042
aS'USDA SAID UNLIKELY TO BROADEN CORN BONUS OFFER'
p1043
aS'MARATHON PETROLEUM REDUCES CRUDE POSTINGS'
p1044
aS'<GEORGE WESTON LTD> YEAR NET'
p1045
aS'RELIEF TO U.S. CORN/OATS GROWERS SAID LIKELY'
p1046
aS'N.Z. MONEY SUPPLY RISES 3.6 PCT IN DECEMBER'
p1047
aS'CIRCUIT SYSTEMS <CSYI> BUYS BOARD MAKER'
p1048
aS'FALLING SOYBEAN CRUSH RATIOS CUT OUTPUT'
p1049
aS'MAIL BOXES ETC <MAIL> 3RD QTR JAN 31 NET'
p1050
aS'MUNSINGWEAR INC <MUN> 4TH QTR JAN 3 LOSS'
p1051
aS'FED DATA SUGGEST STABLE U.S. MONETARY POLICY'
p1052
aS'FRANCE FACES PRESSUE TO CHANGE POLICIES'
p1053
aS'GTI CORP <GTI> 4TH QTR OPER NET'
p1054
aS'HOUSTON OIL <HO> RESERVES STUDY COMPLETED'
p1055
aS'FAMOUS RESTAURANTS INC <FAMS> 4TH QTR LOSS'
p1056
aS'JAPAN CONSUMER PRICES FALL 0.4 PCT IN JANUARY'
p1057
aS'AVERY <AVY> SETS TWO FOR ONE STOCK SPLIT'
p1058
aS'N.Z. CENTRAL BANK SEES SLOWER MONEY, CREDIT GROWTH'
p1059
aS'AVERAGE YEN CD RATES FALL IN LATEST WEEK'
p1060
aS'JAPAN EXPECTED TO CUT BASE RATE FOR STATE BODIES'
p1061
aS'"AUSTRALIA\'S KEATING CHANGES ECONOMIC FORECASTS"'
p1062
aS'THAI RICE EXPORTS RISE IN WEEK ENDED FEBRUARY 24'
p1063
aS'TOKYO GRAIN EXCHANGE TO RAISE MARGIN REQUIREMENTS'
p1064
aS'PRODUCER SPLIT HEATS UP COFFEE QUOTA TALKS'
p1065
aS'ITALIAN TREASURY CUTS INTEREST ON CERTIFICATES'
p1066
aS'INDONESIAN AGRICULTURE GROWTH EXPECTED TO SLOW'
p1067
aS'KUWAIT SAYS NO PLANS FOR EMERGENCY OPEC TALKS'
p1068
aS'INDONESIA SEEN AT CROSSROADS OVER ECONOMIC CHANGE'
p1069
aS'CHINESE WHEAT CROP THREATENED BY PESTS, DISEASE'
p1070
aS'SAUDI RIYAL DEPOSIT RATES REMAIN FIRM'
p1071
aS'QATAR UNVEILS BUDGET FOR FISCAL 1987/88'
p1072
aS'GULF BOND, STOCK MARKETS LAG BEHIND, GIB SAYS'
p1073
aS'SAUDI ARABIA REITERATES COMMITMENT TO OPEC PACT'
p1074
aS'COFFEE QUOTA TALKS CONTINUE, NO ACCORD SEEN LIKELY'
p1075
aS'CANADA-EGYPT WHEAT NEGOTIATIONS TO CONTINUE'
p1076
aS'INDONESIAN WHEAT IMPORTS EXPECTED TO FALL IN 1987'
p1077
aS'ZAMBIA TO RETAIN CURRENCY AUCTION, SAYS KAUNDA'
p1078
aS'INDONESIAN SUGAR OUTPUT SEEN SHORT OF TARGET'
p1079
aS'NIPPON KOKAN STEEL AFFILIATES CONSIDERING MERGER'
p1080
aS'INDONESIA UNLIKELY TO IMPORT PHILIPPINES COPRA'
p1081
aS'JAPAN FEBRUARY INTERIM TRADE SURPLUS JUMPS'
p1082
aS'NIPPON LIGHT METAL CONTINUES ALUMINIUM OUTPUT CUT'
p1083
aS'SAUDI FEBRUARY CRUDE OUTPUT PUT AT 3.5 MLN BPD'
p1084
aS'INDONESIAN PALM OIL OUTPUT EXPECTED TO RISE'
p1085
aS'INDONESIAN TEA, COCOA EXPORTS SEEN UP, COFFEE DOWN'
p1086
aS'"JAPAN\'S NTT FORECASTS PROFITS FALL IN 1987/88"'
p1087
aS'CHINA SIGNS WORLD BANK LOAN FOR TIANJIN PORT'
p1088
aS'JAPAN FEBRUARY RESERVES RECORD 51.73 BILLION DLRS'
p1089
aS'ICO TALKS ON COFFEE QUOTAS TO RESUME AT NOON'
p1090
aS'INDIAN SUGAR OUTPUT RISES IN FIRST FOUR MONTHS'
p1091
aS'NEW DUTCH ADVANCES TOTAL 4.8 BILLION GUILDERS'
p1092
aS'JAPAN BUYS SOME 95,000 TONNES SOYBEANS FROM CHINA'
p1093
aS'CHEUNG KONG (HOLDINGS) LTD <CKGH.HK> YEAR 1986'
p1094
aS'WALLENBERGS FIGHT BID FOR SWEDISH MATCH STAKE'
p1095
aS'INDONESIAN SOYBEAN IMPORTS FORECAST TO RISE'
p1096
aS'SHV SAYS IT MAKING TENDER OFFER FOR IC GAS'
p1097
aS'U.K. MONEY MARKET DEFICIT FORECAST AT 800 MLN STG'
p1098
aS'BLACK MINERS SUPPORT S. AFRICAN MINES TAKEOVER'
p1099
aS'THAILAND ANNOUNCES THIRD TAPIOCA QUOTA FOR EC'
p1100
aS'ATPC MEMBERS FIND WAYS TO CURB TIN EXPORTS'
p1101
aS'SOUTH KOREA TO HOLD CURRENT ACCOUNT SURPLUS DOWN'
p1102
aS'DUTCH OILSEEDS/FATS IMPORTS ROSE IN 1986'
p1103
aS'"CHINA\'S HEILONGJIANG PROVINCE BOOSTS GOLD OUTPUT"'
p1104
aS'SALE TILNEY BUYS STAKE IN U.S. INSURANCE BROKER'
p1105
aS'ESTIMATED DROP IN JAPAN CORPORATE PROFITS TRIMMED'
p1106
aS'INDIA BUYS 46,000 TONNES OF VEGETABLE OILS'
p1107
aS'JAPAN TO PROMOTE INTEREST RATE LIBERALISATION'
p1108
aS'TAIWAN POWER FIRM PLANS MORE FOREIGN DEBT CUTS'
p1109
aS'DUTCH ANIMAL FEED USAGE DOWN IN FIRST HALF SEASON'
p1110
aS'U.K. CONFIRMS JANUARY STERLING M3 RISE'
p1111
aS'EXCO BUYS U.S. GOVERNMENT SECURITIES BROKER'
p1112
aS'PAKISTAN TO TENDER FOR RBD PALM OIL'
p1113
aS'COLOROLL AGREES TO BUY U.S. WALLCOVERINGS COMPANY'
p1114
aS'U.K. MONEY MARKET SHORTAGE FORECAST REVISED DOWN'
p1115
aS'SWEDEN TO GO AHEAD WITH S. AFRICAN TRADE SANCTIONS'
p1116
aS'U.K. MONEY MARKET RECEIVES 37 MLN STG ASSISTANCE'
p1117
aS'JAPAN, U.S. SET TO BEGIN HIGH-LEVEL TRADE TALKS'
p1118
aS'INDIA TO HOLD WHITE SUGAR BUYING TENDER'
p1119
aS'CARLTON COMMUNICATIONS OPTIMISTIC FOR 1987'
p1120
aS'EC OPENS ANTI-DUMPING ENQUIRY INTO SOVIET MERCURY'
p1121
aS'GULF ARAB DEPUTY OIL MINISTERS TO MEET IN BAHRAIN'
p1122
aS'SAUDI ARABIA REITERATES COMMITMENT TO OPEC ACCORD'
p1123
aS'KUWAIT MINISTER SAYS NO EMERGENCY OPEC TALKS SET'
p1124
aS'TAIWAN PLANS NEW TARIFF CUTS'
p1125
aS'HUTCHISON SEES HIGHER PAYOUT, SATISFACTORY PROFITS'
p1126
aS'SCIENTIFIC MICRO SYSTEMS <SMSI> ACUIRES SUPERMAC'
p1127
aS'AMERICAN EXPRESS <AXP> VIEWING SHEARSON OPTIONS'
p1128
aS'ROPAK <ROPK> HAS 34 PCT OF BUCKHORN <BKN>'
p1129
aS'PHILADELPHIA PORT CLOSED BY TANKER CRASH'
p1130
aS'PENRIL <PNL> SEEKS TO SELL TWO UNITS'
p1131
aS'<DALE BURDETT INC> FACES DAMAGE CLAIM'
p1132
aS'PUROLATOR <PCC> IN BUYOUT WITH HUTTON <EFH>'
p1133
aS'PAKISTAN COTTON OUTPUT REACHES 7.7 MLN BALES'
p1134
aS'FINANCIAL SANTA BARBARA <FSB> TO MAKE PURCHASE'
p1135
aS'ALCAN TO CLOSE WEST GERMAN ALUMINIUM SMELTER'
p1136
aS'BBC AG BROWN BOVERI UND CIE <BBCZ.Z> 1986 YEAR'
p1137
aS'MARRIOTT <MHS> TO SELL HOTEL'
p1138
aS'BROWN BOVERI OMITS DIVIDEND, PLANS WARRANT BOND'
p1139
aS'LAROCHE STARTS BID FOR NECO <NPT> SHARES'
p1140
aS'<SDC SYDNEY DEVELOPMENT CORP> NINE MTHS LOSS'
p1141
aS'SENIOR ENGINEERING MAKES 12.5 MLN DLR US PURCHASE'
p1142
aS'CHEUNG KONG CHAIRMAN SEES STRONG RESULTS IN 1987'
p1143
aS'VIACOM <VIA> RECEIVES TWO REVISED OFFERS'
p1144
aS'FRENCH ESTIMATE 86/87 WHEAT DELIVERIES UNCHANGED'
p1145
aS'TUESDAY MORNING INC <TUES> 4TH QTR NET'
p1146
aS'MILLER TABAK HAS 91.8 PCT OF PENN TRAFFIC <PNF>'
p1147
aS'COFFEE QUOTA TALKS CONTINUE BUT NO AGREEMENT YET'
p1148
aS'WASTE MANAGEMENT <WMX> VOTES SPLIT, UPS PAYOUT'
p1149
aS'POREX TECHNOLOGIES <PORX> SETS INITIAL DIVIDEND'
p1150
aS'DAVIS WATER <DWWS> DECLARES STOCK DIVIDEND'
p1151
aS'MEDCO CONTAINMENT <MCCS> SETS INITIAL PAYOUT'
p1152
aS'PITTSTON <PCO> AGREES TO ACQUIRE WTC <WAF>'
p1153
aS'SDC SYDNEY COST REVIEW MAY ELIMINATE PRODUCTS'
p1154
aS'<MULTI-STEP PRODUCTS INC> SIX MTHS DEC 31 LOSS'
p1155
aS'U.K. MONEY MARKET OFFERED BORROWING FACILTIES'
p1156
aS'SWISS SIGHT DEPOSITS RISE 3.10 BILLION FRANCS'
p1157
aS'WHITTAKER CORP <WKR> 1ST QTR JAN 31 NET'
p1158
aS'STOP AND SHOP COS INC <SHP> 4TH QTR JAN 31 NET'
p1159
aS'JIM WALTER CORP <JWC> REGULAR DIVIDEND'
p1160
aS'DIAGNOSTIC <DRS> MAKES A BID FOR ROSPATCH <RPCH>'
p1161
aS'RECORD N.Z. FUTURES VOLUMES TRADED IN FEBRUARY'
p1162
aS'WHITTAKER <WKR> TO HAVE GAINS FROM SALES'
p1163
aS'THE JAPAN FUND <JPN> GETS BUYOUT OFFER'
p1164
aS'<SAMSUNG CO> CALENDAR 1986'
p1165
aS'<DAEWOO CORP> CALENDAR 1986'
p1166
aS'BANK OF NEW YORK <BK> TO HAVE GAIN ON UNIT SALE'
p1167
aS'CORNING <GLW>, HAZLETON <HLC> SET EXCAHNGE RATIO'
p1168
aS'HEALTH EXPERTS URGE ERADICATION OF RINDERPEST'
p1169
aS'TURKISH RETAIL PRICES RISE 2.7 PCT IN FEBRUARY'
p1170
aS'BALLY <BLY> COMPLETES PURCHASE OF GOLDEN NUGGET'
p1171
aS'CONSOLIDATED TVX TO BUY BRAZIL GOLD MINE STAKES'
p1172
aS'WARWICK INSURANCE MANAGERS INC <WIMI> 4TH QTR'
p1173
aS'CANADA INDUSTRIAL PRICES UP 0.2 PCT IN MONTH'
p1174
aS'STROBER ORGANIZATION INC <STRB> 4TH QTR NET'
p1175
aS'BRENCO INC <BREN> DECLARES QTLY DIVIDEND'
p1176
aS'MASSACHUSETTS INVESTORS GROWTH STOCK FUND PAYOUT'
p1177
aS'<PREMDOR INC> 4TH QTR NET'
p1178
aS'AMERICAN NURSERY <ANSY> BUYS FLORIDA NURSERY'
p1179
aS'MFS MANAGED SECTORS TRUST DIVIDEND INCREASED'
p1180
aS'MULTI-STEP TO SELL LADDER UNIT, CANCEL SHARES'
p1181
aS'ESSELTE BUSINESS <ESB> UNIT BUYS ANTONSON UNIT'
p1182
aS'FED EXPECTED TO ADD TEMPORARY RESERVES'
p1183
aS'FOUR SEASONS BUYING MARRIOTT <MHS> HOTEL'
p1184
aS'STONE <STO> SPLITS STOCK, RAISES PAYOUT'
p1185
aS'S-K-I LTD <SKII> 2ND QTR JAN 25 NET'
p1186
aS'KAPOK CORP <KPK> YEAR SEPT 30 LOSS'
p1187
aS'CARGILL U.K. STRIKE TALKS POSTPONED'
p1188
aS'AMAX <AMX> IN GOLD, SILVER FIND'
p1189
aS'STUDY GROUP URGES INCREASED U.S. OIL RESERVES'
p1190
aS'K-TRON INTERNATIONAL INC <KTII> 4TH QTR NET'
p1191
aS'PRESIDENTIAL REALTY CORP <PDO> ANNUAL NET'
p1192
aS'REDSTONE DETAILS SWEETENED VIACOM <VIA> OFFER'
p1193
aS'MONTEDISON CONCLUDES TALKS WITH ANTIBIOTICOS'
p1194
aS'UTILICORP <UCU> COMPLETES ACQUISITION'
p1195
aS'TRADERS DETAIL FRENCH CEREAL EXPORT REQUESTS'
p1196
aS'STUDY GROUP URGES INCREASED U.S. OIL RESERVES'
p1197
aS'CARBIDE <UK> LOOKS TO ACQUISITIONS FOR GROWTH'
p1198
aS'CORRECTED - BANKAMERICA NEGOTIATING SALE OF UNITS'
p1199
aS'<FRANKLIN GOLD FUND> CUTS DIVIDEND'
p1200
aS'<FRANKLIN CALIFORNIA TAX-FREE INCOME FUND>PAYOUT'
p1201
aS'<FRANKLIN AGE HIGH INCOME FUND> SETS PAYOUT'
p1202
aS'<FRANKLIN FEDERAL TAX-FREE INCOME FUND> PAYOUT'
p1203
aS'<FRANKLIN NEW YORK TAX-FREE INCOME FUND> PAYOUT'
p1204
aS'<FRANKLIN U.S. GOVERNMENT SECURITIES FUND>PAYOUT'
p1205
aS'CANADA RULING ON U.S. CORN INJURY DUE THIS WEEK'
p1206
aS'FIRST MISSISSIPPI CORP <FRM> SETS PAYOUT'
p1207
aS'ROTTERDAM PORT UNION AND EMPLOYERS TO MEET'
p1208
aS'JIM WALTER CORP <JWC> SETS PAYOUT'
p1209
aS'FED ADDS RESERVES VIA CUSTOMER REPURCHASES'
p1210
aS'"JAPAN\'S NTT FORECASTS PROFITS FALL IN 1987/88"'
p1211
aS'EC COMMISSION GIVEN PLAN TO SAVE STEEL INDUSTRY'
p1212
aS'DURO-TEST CORP <DUR> 2ND QTR JAN 31 NET'
p1213
aS'<FRANKLIN UTILITIES FUND> SETS PAYOUT'
p1214
aS'GELCO CORP <GEL> 2ND QTR JAN 31 NET'
p1215
aS'INTERNCHANGE FINANCIAL SERVICES <ISBJ> PAYOUT UP'
p1216
aS'KAPOK CORP <KPK> IN TECHNICAL DEFAULT'
p1217
aS'NEWPORT CORP <NESP> 2ND QTR JAN 31 NET'
p1218
aS'KAPOK CORP <KPK> 1ST QTR DEC 31 LOSS'
p1219
aS'PREFERRED HEALTHCARE LTD <PHCC> 4TH QTR NET'
p1220
aS'TRANZONIC COS <TNZ> SETS QUARTERLY'
p1221
aS'CRONUS INDUSTRIES INC <CRNS> 4TH QTR LOSS'
p1222
aS'MERCURY ENTERTAINMENT CORP <MCRY> YEAR NOV 30'
p1223
aS'BENGUET CORP <BE> CALENDAR 1986'
p1224
aS'UNOCAL <UCL> UNIT CUTS CRUDE OIL POSTED PRICES'
p1225
aS'"PANHANDLE\'S <PEL> TRUNKLINE REDUCES GAS RATES"'
p1226
aS'INVESTOR GROUP HAS TALKS WITH PESCH ON AMI <AMI>'
p1227
aS'I.M.S. INTERNATIONAL INC <IMSI> SETS QUARTERLY'
p1228
aS'BANNER <BNR> COMPLETES TENDER FOR REXNORD <REX>'
p1229
aS'MUTUAL OF OMAHA INTEREST SHARES <MUO> QTLY DIV'
p1230
aS'CORRECTED - BANKAMERICA NEGOTIATING UNITS SALE'
p1231
aS'OSR <OSRC> TO MAKE ACQUISITION'
p1232
aS'MERCURY ENTERTAINMENT <MCRY> SEES BETTER RESULTS'
p1233
aS'CRONUS INDUSTRIES INC <CRNS> SELLS UNIT'
p1234
aS'UNISYS CORP <UIS> SETS QUARTERLY'
p1235
aS'JACOBSON <JCBS> VOTES SPLIT, INCREASES PAYOUT'
p1236
aS'HARLEY-DAVIDSON INC <HDI> 4TH QTR NET'
p1237
aS'<HOECHST AG> COMPLETES CELANESE <CZ> ACQUISITION'
p1238
aS'AMERICUS TRUST <HPU> EXTENDS DEADLINE'
p1239
aS'MORSE SHOE INC <MRS> 4TH QTR NET'
p1240
aS'ICO QUOTA TALKS CONTINUE, OUTCOME HARD TO GAUGE'
p1241
aS'VERSATILE TO BUILD POLAR ICE BREAKER'
p1242
aS'<PANTRY INC> INB TALKS ON BEING ACQUIRED'
p1243
aS'CONGRESS VIDEO GROUP INC <CVGI> 3RD QTR NET'
p1244
aS'<RENOUF CORP> TO PROCEED WITH BENEQUITY <BH> BID'
p1245
aS'CUBA TELLS TRADERS SUGAR EXPORTS MAY BE DELAYED'
p1246
aS'GOODRICH <GR> TO PHASE OUT SOME BUSINESSES'
p1247
aS'THUNANDER CORP <THDR> YEAR NET'
p1248
aS'FINAL TRUST FOR THRIFT INSTITUTIONS PAYOUT SET'
p1249
aS'(RPT) U.S. SAYS TIN DISPOSALS WILL NOT AFFECT ACCORD'
p1250
aS'FRANKLIN INSURED TAX-FREE SETS PAYOUT'
p1251
aS'FRANKLIN MINNESOTA INSURED SETS PAYOUT'
p1252
aS'FRANKLIN MICHIGAN INSURED SETS PAYOUT'
p1253
aS'FRANKLIN MASSACHUSETTS INSURED CUTS PAYOUT'
p1254
aS'FRANKLIN CALIFORNIA TAX-FREE SETS PAYOUT'
p1255
aS'DIAGNOSTIC PRODUCTS <DPCZ> SEES EARNINGS GROWTH'
p1256
aS'CURRENCIES COULD INFLUENCE BULLION AGAIN-MONTAGU'
p1257
aS'"DUNKIN\' DONUTS INC <DUNK> 1ST QTR JAN 24 NET"'
p1258
aS'CCR VIDEO CORP <CCCR> 1ST QTR NOV 30 NET'
p1259
aS'FRANKLIN PUERTO RICO TAX-FREE SETS PAYOUT'
p1260
aS'FRANKLIN OHIO INSURED TAX-FREE SETS PAYOUT'
p1261
aS'FRANKLIN HIGH-YIELD TAX-FREE SETS PAYOUT'
p1262
aS'CONVERGENT TECHNOLOGIES <CVGT> TO BUY OAKLEAF'
p1263
aS'NYMEX WILL EXPAND OFF-HOUR TRADING APRIL ONE'
p1264
aS'ROSPATCH <RPCH> TO RESPOND TO DIAGNOSTIC <DRS>'
p1265
aS'GREEN TREE ACCEPTANCE INC <GNT> SETS DIVIDEND'
p1266
aS'ARGENTINE OIL PRODUCTION DOWN IN JANUARY 1987'
p1267
aS'NORTH AMERICAN GROUP <NAMG> BUYS GEORGIA FIRM'
p1268
aS'TALKING POINT/VIACOM INTERNATIONAL <VIA>'
p1269
aS'UP-RIGHT INC <UPRI> 4TH QTR OPER NET'
p1270
aS'TALKS SHOW NEW CANADIAN CONFIDENCE, GROUP SAYS'
p1271
aS'"ALBERTSON\'S INC <ABS> RAISES QTLY DIVIDEND"'
p1272
aS'WAVEHILL INTERNATIONAL TO MAKE ACQUISITION'
p1273
aS'SECURITY PACIFIC <SPC> COMPLETES MERGER'
p1274
aS'U.S. INTEC INC <INTK> 4TH QTR NET'
p1275
aS'ICI <ICI> SEEKS GAINS IN SPECIALTY BUSINESSES'
p1276
aS'"INT\'L HYDRON CORP <HYD> 4TH QTR OPER NET"'
p1277
aS'"ALBERTSON\'S <ABS> ADOPTS STOCKHOLDER RIGHTS PLAN"'
p1278
aS'ROSPATCH <RPCH> REJECTS DIAGNOSTIC <DRS> BID'
p1279
aS'SYNTECH INTERENATIONAL INC <SYNE> 4TH QTR NET'
p1280
aS'"INT\'L MINERALS <IGL> BUYS ANIMAL PRODUCTS UNIT"'
p1281
aS'JWT <JWT> NOT APPROACHED BY GROUP SEEKING SHARES'
p1282
aS'"COEUR D\'ALENE MINES CORP <COUR> 4TH QTR LOSS"'
p1283
aS'FOOTE MINERAL <FTE> SELLS CAMBRIDGE PLANT'
p1284
aS'U.S. WHEAT GROUPS CALL FOR GLOBAL ACTION'
p1285
aS'GELCO <GEL> SEES FLAT 1987 PRETAX OPERATING NET'
p1286
aS'UTILICORP <UCU> ACQUIRES DOMINION <D> SUBSIDIARY'
p1287
aS'PESCH SEES SHAREHOLDER SUPPORT IN AMI <AMI> BID'
p1288
aS'SENIOR DELEGATES PESSIMISTIC ON ICO TALKS'
p1289
aS'GLAMIS GOLD LTD <GLGVF> SIX MTHS DEC 31 NET'
p1290
aS'U.S. APPROVES BUYOUT OF COASTAL BANCORP <CSBK>'
p1291
aS'LITTLE PRINCE PRODUCTIONS LTD<LTLP>1ST QTR LOSS'
p1292
aS'AMCA <AIL> TO SELL SOME DOMINION BRIDGE ASSETS'
p1293
aS'"SCOTT\'S HOSPITALITY ACQUIRES CAPITAL FOOD"'
p1294
aS'UNION NATIONAL <UNBC> SIGNS DEFINITIVE PACT'
p1295
aS'ANALYSTS SEE NO OTHER BIDDER FOR PUROLATOR<PCC>'
p1296
aS'WHITEHALL CORP <WHT> 4TH QTR NET'
p1297
aS'SERVICE CORP INTERNATIONAL <SRV> 3RD QTR NET'
p1298
aS'PEOPLES BANCORPORATION <PEOP> QUARTERLY DIVIDEND'
p1299
aS'CPL REIT <CNTRS> 4TH QTR NET'
p1300
aS'REPUBLIC AUTOMOTIVE PARTS <RAUT> 4TH QTR LOSS'
p1301
aS'REALMERICA CO <RACO> YEAR NOV 30 NET'
p1302
aS'S-K-I LTD <SKII> 2ND QTR JAN 25 NET'
p1303
aS'FERRO CORP <FOE> SETS JOINT VENTURE'
p1304
aS'NYMEX RULE CHANGE SEEN BOOSTING ENERGY TRADE'
p1305
aS'U.S. REFINERY COPPER STOCKS FALL IN JANUARY'
p1306
aS'CCL UNIT ACQUIRES NESTLE CANADA CAN OPERATIONS'
p1307
aS'AMERICAN PORK CONGRESS KICKS OFF TOMORROW'
p1308
aS'COPPER STOCKS OUTSIDE U.S. INCREASE IN DECEMBER'
p1309
aS'MFS MANAGED MUNCIPAL BOND TRUST SETS PAYOUT'
p1310
aS'U.S. BRASS MILL COPPER STOCKS LOWER IN JANUARY'
p1311
aS'MFS MUNICIPAL INCOME TRUST <MFM> SETS PAYOUT'
p1312
aS'PITTWAY CORP <PRY> 4TH QTR NET'
p1313
aS'ARMTEK <ARM> TO SELL INDUSTRIAL TIRE UNIT'
p1314
aS'PETROLITE CORP <PLIT> SETS PAYOUT'
p1315
aS'NYMEX TO SUBMIT PROPANE PROPOSAL TO CFTC'
p1316
aS'YEUTTER BLASTS PROPOSED EC OILS AND FATS TAX'
p1317
aS'EXXON <XON> CUTS HEATING OIL BARGE PRICE'
p1318
aS'GREECE SAYS IT HAS RIGHT ON AEGEAN OIL DRILLING'
p1319
aS'LEUCADIA <LUK> HAS 7.2 PCT OF MINSTAR <MNST>'
p1320
aS'BASIX CORP <BAS> 4TH QTR LOSS'
p1321
aS'AUSTRALIAN JANUARY ANNUAL BROAD MONEY UP 10.3 PCT'
p1322
aS'MICROBIO <MRC> PLANS ACQUISITION, FINANCING'
p1323
aS'ICO COUNCIL ENDS IN FAILURE TO AGREE QUOTAS'
p1324
aS'FRANCE HAS LITTLE ROOM FOR MANOEUVRE, OECD SAYS'
p1325
aS'PAINEWEBBER<PWJ> UNIT UPS SHAER SHOE <SHS> STAKE'
p1326
aS'TELECREDIT INC <TCRD> 3RD QTR JAN 31 NET'
p1327
aS'LASER PRECISION CORP <LASR> 4TH QTR NET'
p1328
aS'REXNORD <REX> TO REDEEM RIGHTS'
p1329
aS'CANTREX UNIT TO MERGE WITH ONTARIO GROUP'
p1330
aS'INVESTMENT FIRM BOOSTS LDBRINKMAN <DBC> STAKE'
p1331
aS'"ITT\'S <ITT> HARTFORD UNIT POSTS 4TH QTR GAIN"'
p1332
aS'SEC PROBES 1986 TRE <TRE> TAKEOVER ATTEMPT'
p1333
aS'CBT FEBRUARY VOLUME DOWN 14 PCT FROM YEAR AGO'
p1334
aS'USSR WHEAT BONUS RUMORS PERSIST DESPITE DENIALS'
p1335
aS'CANADIAN SEAFARERS THREATEN STRIKE'
p1336
aS'DALLAS CORP <DLS> 4TH QTR LOSS'
p1337
aS'DILLARD DEPARTMENT STORES INC <DDS> 4TH QTR NET'
p1338
aS'KENTUCKY CENTRAL LIFE <KENCA> SETS PAYOUT'
p1339
aS'BANK OF NEW ENGLAND CORP <BKNE> QTLY DIVIDEND'
p1340
aS'JAPAN UNEMPLOYMNENT RISES TO RECORD IN JANUARY'
p1341
aS'FORD <F> EUROPE EARNINGS UP 71 PCT LAST YEAR'
p1342
aS'"SOUTH KOREA\'S LEADING INDICATORS FALL IN DECEMBER"'
p1343
aS'JAPANESE ECONOMIST SEES STABLE YEN/DOLLAR RATES'
p1344
aS'OPEC WITHIN OUTPUT CEILING, SUBROTO SAYS'
p1345
aS'OFFICIAL INQUIRY SET FOR AUSTRALIAN WHEAT INDUSTRY'
p1346
aS'COFFEE TRADERS EXPECT SELLOFF AFTER ICO TALKS FAIL'
p1347
aS'N.Z. QUARTERLY CURRENT ACCOUNT DEFICIT NARROWS'
p1348
aS'TRANSAMERICA SELLS OCCIDENTAL LIFE AUSTRALIA'
p1349
aS'CRA LTD <CRAA.S> 1986 NET'
p1350
aS'MALAYSIA RE-IMPOSES EXPORT DUTIES ON RUBBER'
p1351
aS'MALAYSIA RAISES DUTY ON PROCESSED PALM OIL'
p1352
aS'COMALCO LTD <CMAC.S> 1986 NET'
p1353
aS'"JAPAN\'S UNEMPLOYMENT RATE SEEN RISING TO 3.5 PCT"'
p1354
aS'SOUTH KOREAN TRADE SURPLUS NARROWS IN FEBRUARY'
p1355
aS'JAPAN MOVES TO TIGHTEN CHIP-EXPORT CURBS'
p1356
aS'FINNISH UNEMPLOYMENT AT 6.7 PCT IN DECEMBER'
p1357
aS'BANKERS SEE SHARP RISE IN THAI FOREIGN RESERVES'
p1358
aS'SWEDEN HAS CURRENT PAYMENTS SURPLUS IN 1986'
p1359
aS'FISONS PLC <FISN.L> YEAR TO END-1986'
p1360
aS'PHILIPPINE PLANNING CHIEF URGES PESO DEVALUATION'
p1361
aS'U.K. CLEARS CONS GOLD U.S. PURCHASE'
p1362
aS'ZAIRE ACCEPTS TIN-EXPORT QUOTA, ATPC SAYS'
p1363
aS'U.K. MONEY MARKET DEFICIT FORECAST AT 350 MLN STG'
p1364
aS'SAUDI RIYAL DEPOSIT RATES EASE'
p1365
aS'PEMEX SIGNS 500 MLN DLR JAPAN LOAN FOR PIPELINE'
p1366
aS'STC PLC <STCL.L> YEAR TO END-1986'
p1367
aS'COMALCO SAYS LOWER COSTS HELPED RETURN TO PROFITS'
p1368
aS'CRA EXPECTS TO PAY FINAL DIVIDEND OF 10 CENTS'
p1369
aS'SWISS CAPITAL EXPORTS RISE IN JANUARY'
p1370
aS'CHINA CALLS FOR BETTER TRADE DEAL WITH U.S.'
p1371
aS'NO BUNDESBANK POLICY CHANGES EXPECTED THURSDAY'
p1372
aS'ITALY CONSUMER PRICES RISE 0.4 PCT IN FEBRUARY'
p1373
aS'MOBIL PLAN TO OPEN PEKING OFFICE, CHINA DAILY SAYS'
p1374
aS'KLM TO TAKE 15 PCT STAKE IN AIR UK'
p1375
aS'U.K. RESERVES SHOW UNDERLYING RISE IN FEBRUARY'
p1376
aS'COMALCO SAYS LOWER COSTS HELP RETURN TO PROFITS'
p1377
aS'ULTRAMAR SELLS U.K. MARKETING UNITS FOR 50 MLN STG'
p1378
aS'HONG KONG M3 RISES 2.2 PCT IN JANUARY'
p1379
aS'WOOLWORTH, UNDERWOODS FAIL TO AGREE ON BID'
p1380
aS'NO BUNDESBANK POLICY CHANGES EXPECTED THURSDAY'
p1381
aS'U.K. MONEY MARKET SHORTAGE FORECAST REVISED UP'
p1382
aS'PAKISTAN TO RETENDER FOR RBD PALM OIL TOMORROW'
p1383
aS'MOBIL PLANS TO OPEN OFFICE IN PEKING'
p1384
aS'OPEC WITHIN OUTPUT CEILING, SUBROTO SAYS'
p1385
aS'U.K. MONEY MARKET GIVEN 24 MLN STG ASSISTANCE'
p1386
aS'"JAPAN\'S UNEMPLOYMENT RATE SEEN RISING TO 3.5 PCT"'
p1387
aS'HK HOTELS SOARS ON TAKEOVER SPECULATION'
p1388
aS'BRYSON PAYS 5.4 MLN DLRS FOR CENERGY CORP STAKE'
p1389
aS'ASHTON-TATE <TATE> 4TH QTR NET'
p1390
aS'NEITHER SIDE OPTIMISTIC ON ROTTERDAM PORT ISSUES'
p1391
aS'UNILEVER IMPROVES IN MOST SECTORS DURING 1986'
p1392
aS'U.S. LEADING INDEX FELL 1.0 PCT IN JANUARY'
p1393
aS'BURLINGTON COAT FACTORY WAREHOUSE CORP <BCF> NET'
p1394
aS'COFFEE PRICE FALL SHORT TERM - DUTCH ROASTERS'
p1395
aS'GREENWOOD RESOURCES <GRRL> SELLS COMPANY STAKE'
p1396
aS'HEINZ INTERESTED IN BUYING GUINNESS BREWING'
p1397
aS'EQUATORIAL COMMUNICATIONS <EQUA> TO HAVE LOSSES'
p1398
aS'TRANSAMERICA <TA> TO HAVE AUSTRALIAN SALE GAIN'
p1399
aS'F.W. WOOLWORTH CO <Z> 4TH QTR JAN 31 NET'
p1400
aS'BP OIL RAISES OPERATING PROFIT'
p1401
aS'U.S. ASKS JAPAN END AGRICULTURE IMPORT CONTROLS'
p1402
aS'FIRSTCORP <FCR> SEES GAIN ON CONDEMNATION'
p1403
aS'<NATIONAL SEA PRODUCTS LTD> 4TH QTR NET'
p1404
aS'U.K. MONEY MARKET SHORTAGE FORECAST REVISED DOWN'
p1405
aS'NATIONAL AMUSEMENTS AGAIN UPS VIACOM <VIA> BID'
p1406
atp1407
.